target datalayout = "e-m:e-p270:32:32-p271:32:32-p272:64:64-i64:64-i128:128-f80:128-n8:16:32:64-S128"
target triple = "x86_64-pc-linux-gnu"

%struct.pg_prng_state = type { i64, i64 }

; Function Attrs: inlinehint nounwind uwtable
define internal i64 @rotl(i64 noundef %0, i32 noundef %1) #3 {
  %3 = alloca i64, align 8
  %4 = alloca i32, align 4
  store i64 %0, ptr %3, align 8
  store i32 %1, ptr %4, align 4
  %5 = load i64, ptr %3, align 8
  %6 = load i32, ptr %4, align 4
  %7 = zext i32 %6 to i64
  %8 = shl i64 %5, %7
  %9 = load i64, ptr %3, align 8
  %10 = load i32, ptr %4, align 4
  %11 = sub i32 64, %10
  %12 = zext i32 %11 to i64
  %13 = lshr i64 %9, %12
  %14 = or i64 %8, %13
  ret i64 %14
}

; Function Attrs: nounwind uwtable
define internal i64 @xoroshiro128ss(ptr noundef %0) #0 {
  %2 = alloca ptr, align 8
  %3 = alloca i64, align 8
  %4 = alloca i64, align 8
  %5 = alloca i64, align 8
  store ptr %0, ptr %2, align 8
  call void @llvm.lifetime.start.p0(i64 8, ptr %3) #6
  %6 = load ptr, ptr %2, align 8
  %7 = getelementptr inbounds nuw %struct.pg_prng_state, ptr %6, i32 0, i32 0
  %8 = load i64, ptr %7, align 8
  store i64 %8, ptr %3, align 8
  call void @llvm.lifetime.start.p0(i64 8, ptr %4) #6
  %9 = load ptr, ptr %2, align 8
  %10 = getelementptr inbounds nuw %struct.pg_prng_state, ptr %9, i32 0, i32 1
  %11 = load i64, ptr %10, align 8
  %12 = load i64, ptr %3, align 8
  %13 = xor i64 %11, %12
  store i64 %13, ptr %4, align 8
  call void @llvm.lifetime.start.p0(i64 8, ptr %5) #6
  %14 = load i64, ptr %3, align 8
  %15 = mul i64 %14, 5
  %16 = call i64 @rotl(i64 noundef %15, i32 noundef 7)
  %17 = mul i64 %16, 9
  store i64 %17, ptr %5, align 8
  %18 = load i64, ptr %3, align 8
  %19 = call i64 @rotl(i64 noundef %18, i32 noundef 24)
  %20 = load i64, ptr %4, align 8
  %21 = xor i64 %19, %20
  %22 = load i64, ptr %4, align 8
  %23 = shl i64 %22, 16
  %24 = xor i64 %21, %23
  %25 = load ptr, ptr %2, align 8
  %26 = getelementptr inbounds nuw %struct.pg_prng_state, ptr %25, i32 0, i32 0
  store i64 %24, ptr %26, align 8
  %27 = load i64, ptr %4, align 8
  %28 = call i64 @rotl(i64 noundef %27, i32 noundef 37)
  %29 = load ptr, ptr %2, align 8
  %30 = getelementptr inbounds nuw %struct.pg_prng_state, ptr %29, i32 0, i32 1
  store i64 %28, ptr %30, align 8
  %31 = load i64, ptr %5, align 8
  call void @llvm.lifetime.end.p0(i64 8, ptr %5) #6
  call void @llvm.lifetime.end.p0(i64 8, ptr %4) #6
  call void @llvm.lifetime.end.p0(i64 8, ptr %3) #6
  ret i64 %31
}

; Function Attrs: nounwind uwtable
define double @pg_prng_double(ptr noundef %0) #0 {
  %2 = alloca ptr, align 8
  %3 = alloca i64, align 8
  store ptr %0, ptr %2, align 8
  call void @llvm.lifetime.start.p0(i64 8, ptr %3) #6
  %4 = load ptr, ptr %2, align 8
  %5 = call i64 @xoroshiro128ss(ptr noundef %4)
  store i64 %5, ptr %3, align 8
  %6 = load i64, ptr %3, align 8
  %7 = lshr i64 %6, 12
  %8 = uitofp i64 %7 to double
  %9 = call double @ldexp(double noundef %8, i32 noundef -52) #6
  call void @llvm.lifetime.end.p0(i64 8, ptr %3) #6
  ret double %9
}

; Function Attrs: nounwind uwtable
define double @pg_prng_double_normal(ptr noundef %0) #0 {
  %2 = alloca ptr, align 8
  %3 = alloca double, align 8
  %4 = alloca double, align 8
  %5 = alloca double, align 8
  store ptr %0, ptr %2, align 8
  call void @llvm.lifetime.start.p0(i64 8, ptr %3) #6
  call void @llvm.lifetime.start.p0(i64 8, ptr %4) #6
  call void @llvm.lifetime.start.p0(i64 8, ptr %5) #6
  %6 = load ptr, ptr %2, align 8
  %7 = call double @pg_prng_double(ptr noundef %6)
  %8 = fsub double 1.000000e+00, %7
  store double %8, ptr %3, align 8
  %9 = load ptr, ptr %2, align 8
  %10 = call double @pg_prng_double(ptr noundef %9)
  %11 = fsub double 1.000000e+00, %10
  store double %11, ptr %4, align 8
  %12 = load double, ptr %3, align 8
  %13 = call double @log(double noundef %12) #6
  %14 = fmul double -2.000000e+00, %13
  %15 = call double @sqrt(double noundef %14) #6
  %16 = load double, ptr %4, align 8
  %17 = fmul double 0x401921FB54442D18, %16
  %18 = call double @sin(double noundef %17) #6
  %19 = fmul double %15, %18
  store double %19, ptr %5, align 8
  %20 = load double, ptr %5, align 8
  call void @llvm.lifetime.end.p0(i64 8, ptr %5) #6
  call void @llvm.lifetime.end.p0(i64 8, ptr %4) #6
  call void @llvm.lifetime.end.p0(i64 8, ptr %3) #6
  ret double %20
}