; Function Attrs: mustprogress nofree nounwind willreturn uwtable
define double @pg_prng_double_normal(ptr noundef captures(none) %0) local_unnamed_addr #3 {
  %2 = load i64, ptr %0, align 8
  %3 = getelementptr inbounds nuw i8, ptr %0, i64 8
  %4 = load i64, ptr %3, align 8
  %5 = xor i64 %4, %2
  %6 = mul i64 %2, 5
  %7 = mul i64 %2, 640
  %8 = lshr i64 %6, 57
  %9 = or disjoint i64 %8, %7
  %10 = mul i64 %9, 9
  %11 = tail call i64 @llvm.fshl.i64(i64 %2, i64 %2, i64 24)
  %12 = shl i64 %5, 16
  %13 = xor i64 %11, %12
  %14 = xor i64 %13, %5
  store i64 %14, ptr %0, align 8
  %15 = tail call i64 @llvm.fshl.i64(i64 %5, i64 %5, i64 37)
  store i64 %15, ptr %3, align 8
  %16 = lshr i64 %10, 12
  %17 = uitofp nneg i64 %16 to double
  %18 = tail call double @ldexp(double noundef %17, i32 noundef -52) #8
  %19 = fsub double 1.000000e+00, %18
  %20 = load i64, ptr %0, align 8
  %21 = load i64, ptr %3, align 8
  %22 = xor i64 %21, %20
  %23 = mul i64 %20, 5
  %24 = mul i64 %20, 640
  %25 = lshr i64 %23, 57
  %26 = or disjoint i64 %25, %24
  %27 = mul i64 %26, 9
  %28 = tail call i64 @llvm.fshl.i64(i64 %20, i64 %20, i64 24)
  %29 = shl i64 %22, 16
  %30 = xor i64 %28, %29
  %31 = xor i64 %30, %22
  store i64 %31, ptr %0, align 8
  %32 = tail call i64 @llvm.fshl.i64(i64 %22, i64 %22, i64 37)
  store i64 %32, ptr %3, align 8
  %33 = lshr i64 %27, 12
  %34 = uitofp nneg i64 %33 to double
  %35 = tail call double @ldexp(double noundef %34, i32 noundef -52) #8
  %36 = fsub double 1.000000e+00, %35
  %37 = tail call double @log(double noundef %19) #8
  %38 = fmul double %37, -2.000000e+00
  %39 = tail call double @sqrt(double noundef %38) #8
  %40 = fmul double %36, 0x401921FB54442D18
  %41 = tail call double @sin(double noundef %40) #8
  %42 = fmul double %39, %41
  ret double %42
}